; ModuleID = 'source-C-CXX/57/1005.c'
source_filename = "source-C-CXX/57/1005.c"
target datalayout = "e-m:e-p270:32:32-p271:32:32-p272:64:64-i64:64-f80:128-n8:16:32:64-S128"
target triple = "x86_64-pc-linux-gnu"

@.str = private unnamed_addr constant [4 x i8] c"%d\0A\00", align 1

; Function Attrs: nounwind sspstrong uwtable
define dso_local i32 @main() local_unnamed_addr #0 {
  %1 = alloca i32, align 4
  %2 = alloca [81 x i8], align 16
  %3 = bitcast i32* %1 to i8*
  call void @llvm.lifetime.start.p0i8(i64 4, i8* nonnull %3) #5
  %4 = getelementptr inbounds [81 x i8], [81 x i8]* %2, i64 0, i64 0
  call void @llvm.lifetime.start.p0i8(i64 81, i8* nonnull %4) #5
  %5 = call i32 (i8*, ...) @__isoc99_scanf(i8* getelementptr inbounds ([4 x i8], [4 x i8]* @.str, i64 0, i64 0), i32* nonnull %1)
  %6 = load i32, i32* %1, align 4, !tbaa !5
  %7 = icmp sgt i32 %6, 0
  br i1 %7, label %8, label %43

8:                                                ; preds = %0, %37
  %9 = phi i32 [ %40, %37 ], [ 0, %0 ]
  %10 = call i32 (i8*, ...) bitcast (i32 (...)* @gets to i32 (i8*, ...)*)(i8* nonnull %4) #5
  %11 = load i8, i8* %4, align 16, !tbaa !9
  %12 = add i8 %11, -97
  %13 = icmp ult i8 %12, 26
  br i1 %13, label %19, label %14

14:                                               ; preds = %8
  %15 = add i8 %11, -65
  %16 = icmp ult i8 %15, 26
  %17 = icmp eq i8 %11, 95
  %18 = or i1 %17, %16
  br i1 %18, label %19, label %37

19:                                               ; preds = %14, %8
  %20 = call i64 @strlen(i8* noundef nonnull %4) #6
  %21 = icmp ult i64 %20, 2
  br i1 %21, label %37, label %22

22:                                               ; preds = %19, %34
  %23 = phi i64 [ %35, %34 ], [ 1, %19 ]
  %24 = getelementptr inbounds [81 x i8], [81 x i8]* %2, i64 0, i64 %23
  %25 = load i8, i8* %24, align 1, !tbaa !9
  %26 = and i8 %25, -33
  %27 = add i8 %26, -65
  %28 = icmp ult i8 %27, 26
  br i1 %28, label %34, label %29

29:                                               ; preds = %22
  %30 = add i8 %25, -48
  %31 = icmp ult i8 %30, 10
  %32 = icmp eq i8 %25, 95
  %33 = or i1 %32, %31
  br i1 %33, label %34, label %37

34:                                               ; preds = %29, %22
  %35 = add nuw i64 %23, 1
  %36 = icmp eq i64 %35, %20
  br i1 %36, label %37, label %22, !llvm.loop !10

37:                                               ; preds = %34, %29, %19, %14
  %38 = phi i32 [ 0, %14 ], [ 1, %19 ], [ 1, %34 ], [ 0, %29 ]
  %39 = call i32 (i8*, ...) @printf(i8* nonnull dereferenceable(1) getelementptr inbounds ([4 x i8], [4 x i8]* @.str, i64 0, i64 0), i32 %38)
  %40 = add nuw nsw i32 %9, 1
  %41 = load i32, i32* %1, align 4, !tbaa !5
  %42 = icmp slt i32 %40, %41
  br i1 %42, label %8, label %43, !llvm.loop !12

43:                                               ; preds = %37, %0
  call void @llvm.lifetime.end.p0i8(i64 81, i8* nonnull %4) #5
  call void @llvm.lifetime.end.p0i8(i64 4, i8* nonnull %3) #5
  ret i32 0
}

; Function Attrs: argmemonly mustprogress nofree nosync nounwind willreturn
declare void @llvm.lifetime.start.p0i8(i64 immarg, i8* nocapture) #1

; Function Attrs: nofree nounwind
declare noundef i32 @__isoc99_scanf(i8* nocapture noundef readonly, ...) local_unnamed_addr #2

declare i32 @gets(...) local_unnamed_addr #3

; Function Attrs: argmemonly mustprogress nofree nounwind readonly willreturn
declare i64 @strlen(i8* nocapture) local_unnamed_addr #4

; Function Attrs: nofree nounwind
declare noundef i32 @printf(i8* nocapture noundef readonly, ...) local_unnamed_addr #2

; Function Attrs: argmemonly mustprogress nofree nosync nounwind willreturn
declare void @llvm.lifetime.end.p0i8(i64 immarg, i8* nocapture) #1


!llvm.module.flags = !{!0, !1, !2, !3}
!llvm.ident = !{!4}

!0 = !{i32 1, !"wchar_size", i32 4}
!1 = !{i32 7, !"PIC Level", i32 2}
!2 = !{i32 7, !"PIE Level", i32 2}
!3 = !{i32 7, !"uwtable", i32 1}
!4 = !{!"clang version 13.0.0"}
!5 = !{!6, !6, i64 0}
!6 = !{!"int", !7, i64 0}
!7 = !{!"omnipotent char", !8, i64 0}
!8 = !{!"Simple C/C++ TBAA"}
!9 = !{!7, !7, i64 0}
!10 = distinct !{!10, !11}
!11 = !{!"llvm.loop.mustprogress"}
!12 = distinct !{!12, !11}
